; Function Attrs: mustprogress uwtable
define hidden void @_ZN4cvc58internal6theory2uf15UfModelTreeNode5clearEv(ptr noundef nonnull align 8 dereferenceable(56) %0) local_unnamed_addr #3 align 2 personality ptr @__gxx_personality_v0 {
  %2 = alloca %"class.cvc5::internal::NodeTemplate", align 8
  %3 = getelementptr inbounds nuw i8, ptr %0, i64 16
  %4 = load ptr, ptr %3, align 8, !tbaa !3
  invoke void @_ZNSt8_Rb_treeIN4cvc58internal12NodeTemplateILb1EEESt4pairIKS3_NS1_6theory2uf15UfModelTreeNodeEESt10_Select1stIS9_ESt4lessIS3_ESaIS9_EE8_M_eraseEPSt13_Rb_tree_nodeIS9_E(ptr noundef nonnull align 8 dereferenceable(48) %0, ptr noundef %4)
          to label %_ZNSt3mapIN4cvc58internal12NodeTemplateILb1EEENS1_6theory2uf15UfModelTreeNodeESt4lessIS3_ESaISt4pairIKS3_S6_EEE5clearEv.exit unwind label %5

5:                                                ; preds = %1
  %6 = landingpad { ptr, i32 }
          catch ptr null
  %7 = extractvalue { ptr, i32 } %6, 0
  tail call void @__clang_call_terminate(ptr %7) #20
  unreachable

_ZNSt3mapIN4cvc58internal12NodeTemplateILb1EEENS1_6theory2uf15UfModelTreeNodeESt4lessIS3_ESaISt4pairIKS3_S6_EEE5clearEv.exit: ; preds = %1
  %8 = getelementptr inbounds nuw i8, ptr %0, i64 8
  store ptr null, ptr %3, align 8, !tbaa !3
  %9 = getelementptr inbounds nuw i8, ptr %0, i64 24
  store ptr %8, ptr %9, align 8, !tbaa !12
  %10 = getelementptr inbounds nuw i8, ptr %0, i64 32
  store ptr %8, ptr %10, align 8, !tbaa !13
  %11 = getelementptr inbounds nuw i8, ptr %0, i64 40
  store i64 0, ptr %11, align 8, !tbaa !14
  call void @llvm.lifetime.start.p0(i64 8, ptr nonnull %2) #21
  tail call void @llvm.experimental.noalias.scope.decl(metadata !15)
  %12 = load ptr, ptr @_ZN4cvc58internal12NodeTemplateILb1EE6s_nullE, align 8, !tbaa !18, !noalias !15
  store ptr %12, ptr %2, align 8, !tbaa !18, !alias.scope !15
  %13 = load i64, ptr %12, align 8, !noalias !15
  %14 = lshr i64 %13, 40
  %15 = trunc nuw nsw i64 %14 to i32
  %16 = and i32 %15, 1048575
  %17 = icmp samesign ult i32 %16, 1048574
  br i1 %17, label %18, label %23, !prof !21

18:                                               ; preds = %_ZNSt3mapIN4cvc58internal12NodeTemplateILb1EEENS1_6theory2uf15UfModelTreeNodeESt4lessIS3_ESaISt4pairIKS3_S6_EEE5clearEv.exit
  %19 = add i64 %13, 1099511627776
  %20 = and i64 %19, 1152920405095219200
  %21 = and i64 %13, -1152920405095219201
  %22 = or disjoint i64 %20, %21
  store i64 %22, ptr %12, align 8, !noalias !15
  br label %_ZN4cvc58internal12NodeTemplateILb1EE4nullEv.exit

23:                                               ; preds = %_ZNSt3mapIN4cvc58internal12NodeTemplateILb1EEENS1_6theory2uf15UfModelTreeNodeESt4lessIS3_ESaISt4pairIKS3_S6_EEE5clearEv.exit
  %24 = icmp eq i32 %16, 1048574
  br i1 %24, label %25, label %_ZN4cvc58internal12NodeTemplateILb1EE4nullEv.exit, !prof !22

25:                                               ; preds = %23
  %26 = or i64 %13, 1152920405095219200
  store i64 %26, ptr %12, align 8, !noalias !15
  tail call void @_ZN4cvc58internal4expr9NodeValue20markRefCountMaxedOutEv(ptr noundef nonnull align 8 dereferenceable(24) %12), !noalias !15
  br label %_ZN4cvc58internal12NodeTemplateILb1EE4nullEv.exit

_ZN4cvc58internal12NodeTemplateILb1EE4nullEv.exit: ; preds = %18, %23, %25
  %27 = getelementptr inbounds nuw i8, ptr %0, i64 48
  %28 = load ptr, ptr %27, align 8, !tbaa !18
  %.not.i = icmp eq ptr %28, %12
  br i1 %.not.i, label %_ZN4cvc58internal12NodeTemplateILb1EEaSERKS2_.exit, label %29, !prof !22

29:                                               ; preds = %_ZN4cvc58internal12NodeTemplateILb1EE4nullEv.exit
  %30 = load i64, ptr %28, align 8
  %31 = and i64 %30, 1152920405095219200
  %.not.i.i = icmp eq i64 %31, 1152920405095219200
  br i1 %.not.i.i, label %_ZN4cvc58internal4expr9NodeValue3decEv.exit.i, label %32, !prof !22

32:                                               ; preds = %29
  %33 = add i64 %30, 1152920405095219200
  %34 = and i64 %33, 1152920405095219200
  %35 = and i64 %30, -1152920405095219201
  %36 = or disjoint i64 %34, %35
  store i64 %36, ptr %28, align 8
  %37 = icmp eq i64 %34, 0
  br i1 %37, label %38, label %_ZN4cvc58internal4expr9NodeValue3decEv.exit.i, !prof !22

38:                                               ; preds = %32
  invoke void @_ZN4cvc58internal4expr9NodeValue15markForDeletionEv(ptr noundef nonnull align 8 dereferenceable(24) %28)
          to label %_ZN4cvc58internal4expr9NodeValue3decEv.exit.i unwind label %65

_ZN4cvc58internal4expr9NodeValue3decEv.exit.i:    ; preds = %38, %32, %29
  store ptr %12, ptr %27, align 8, !tbaa !18
  %39 = load i64, ptr %12, align 8
  %40 = lshr i64 %39, 40
  %41 = trunc nuw nsw i64 %40 to i32
  %42 = and i32 %41, 1048575
  %43 = icmp samesign ult i32 %42, 1048574
  br i1 %43, label %44, label %49, !prof !21

44:                                               ; preds = %_ZN4cvc58internal4expr9NodeValue3decEv.exit.i
  %45 = add i64 %39, 1099511627776
  %46 = and i64 %45, 1152920405095219200
  %47 = and i64 %39, -1152920405095219201
  %48 = or disjoint i64 %46, %47
  store i64 %48, ptr %12, align 8
  br label %_ZN4cvc58internal12NodeTemplateILb1EEaSERKS2_.exit

49:                                               ; preds = %_ZN4cvc58internal4expr9NodeValue3decEv.exit.i
  %50 = icmp eq i32 %42, 1048574
  br i1 %50, label %51, label %_ZN4cvc58internal12NodeTemplateILb1EEaSERKS2_.exit, !prof !22

51:                                               ; preds = %49
  %52 = or i64 %39, 1152920405095219200
  store i64 %52, ptr %12, align 8
  invoke void @_ZN4cvc58internal4expr9NodeValue20markRefCountMaxedOutEv(ptr noundef nonnull align 8 dereferenceable(24) %12)
          to label %_ZN4cvc58internal12NodeTemplateILb1EEaSERKS2_.exit unwind label %65

_ZN4cvc58internal12NodeTemplateILb1EEaSERKS2_.exit: ; preds = %49, %44, %_ZN4cvc58internal12NodeTemplateILb1EE4nullEv.exit, %51
  %53 = load i64, ptr %12, align 8
  %54 = and i64 %53, 1152920405095219200
  %.not.i.i3 = icmp eq i64 %54, 1152920405095219200
  br i1 %.not.i.i3, label %_ZN4cvc58internal12NodeTemplateILb1EED2Ev.exit, label %55, !prof !22

55:                                               ; preds = %_ZN4cvc58internal12NodeTemplateILb1EEaSERKS2_.exit
  %56 = add i64 %53, 1152920405095219200
  %57 = and i64 %56, 1152920405095219200
  %58 = and i64 %53, -1152920405095219201
  %59 = or disjoint i64 %57, %58
  store i64 %59, ptr %12, align 8
  %60 = icmp eq i64 %57, 0
  br i1 %60, label %61, label %_ZN4cvc58internal12NodeTemplateILb1EED2Ev.exit, !prof !22

61:                                               ; preds = %55
  invoke void @_ZN4cvc58internal4expr9NodeValue15markForDeletionEv(ptr noundef nonnull align 8 dereferenceable(24) %12)
          to label %_ZN4cvc58internal12NodeTemplateILb1EED2Ev.exit unwind label %62

62:                                               ; preds = %61
  %63 = landingpad { ptr, i32 }
          catch ptr null
  %64 = extractvalue { ptr, i32 } %63, 0
  tail call void @__clang_call_terminate(ptr %64) #20
  unreachable

_ZN4cvc58internal12NodeTemplateILb1EED2Ev.exit:   ; preds = %_ZN4cvc58internal12NodeTemplateILb1EEaSERKS2_.exit, %55, %61
  call void @llvm.lifetime.end.p0(i64 8, ptr nonnull %2) #21
  ret void

65:                                               ; preds = %51, %38
  %66 = landingpad { ptr, i32 }
          cleanup
  call void @_ZN4cvc58internal12NodeTemplateILb1EED2Ev(ptr noundef nonnull align 8 dereferenceable(8) %2) #21
  call void @llvm.lifetime.end.p0(i64 8, ptr nonnull %2) #21
  resume { ptr, i32 } %66
}